(lp0
(lp1
(lp2
F5.0
aF3.5
aF1.3
aF0.3
aa(lp3
F4.5
aF2.3
aF1.3
aF0.3
aa(lp4
F4.4
aF3.2
aF1.3
aF0.2
aa(lp5
F5.0
aF3.5
aF1.6
aF0.6
aa(lp6
F5.1
aF3.8
aF1.9
aF0.4
aa(lp7
F4.8
aF3.0
aF1.4
aF0.3
aa(lp8
F5.1
aF3.8
aF1.6
aF0.2
aa(lp9
F4.6
aF3.2
aF1.4
aF0.2
aa(lp10
F5.3
aF3.7
aF1.5
aF0.2
aa(lp11
F5.0
aF3.3
aF1.4
aF0.2
aa(lp12
F5.5
aF2.6
aF4.4
aF1.2
aa(lp13
F6.1
aF3.0
aF4.6
aF1.4
aa(lp14
F5.8
aF2.6
aF4.0
aF1.2
aa(lp15
F5.0
aF2.3
aF3.3
aF1.0
aa(lp16
F5.6
aF2.7
aF4.2
aF1.3
aa(lp17
F5.7
aF3.0
aF4.2
aF1.2
aa(lp18
F5.7
aF2.9
aF4.2
aF1.3
aa(lp19
F6.2
aF2.9
aF4.3
aF1.3
aa(lp20
F5.1
aF2.5
aF3.0
aF1.1
aa(lp21
F5.7
aF2.8
aF4.1
aF1.3
aa(lp22
F6.7
aF3.1
aF5.6
aF2.4
aa(lp23
F6.9
aF3.1
aF5.1
aF2.3
aa(lp24
F5.8
aF2.7
aF5.1
aF1.9
aa(lp25
F6.8
aF3.2
aF5.9
aF2.3
aa(lp26
F6.7
aF3.3
aF5.7
aF2.5
aa(lp27
F6.7
aF3.0
aF5.2
aF2.3
aa(lp28
F6.3
aF2.5
aF5.0
aF1.9
aa(lp29
F6.5
aF3.0
aF5.2
aF2.0
aa(lp30
F6.2
aF3.4
aF5.4
aF2.3
aa(lp31
F5.9
aF3.0
aF5.1
aF1.8
aaa(lp32
(lp33
F1.0
aF0.0
aF0.0
aa(lp34
F1.0
aF0.0
aF0.0
aa(lp35
F1.0
aF0.0
aF0.0
aa(lp36
F1.0
aF0.0
aF0.0
aa(lp37
F1.0
aF0.0
aF0.0
aa(lp38
F1.0
aF0.0
aF0.0
aa(lp39
F1.0
aF0.0
aF0.0
aa(lp40
F1.0
aF0.0
aF0.0
aa(lp41
F1.0
aF0.0
aF0.0
aa(lp42
F1.0
aF0.0
aF0.0
aa(lp43
F0.0
aF1.0
aF0.0
aa(lp44
F0.0
aF1.0
aF0.0
aa(lp45
F0.0
aF1.0
aF0.0
aa(lp46
F0.0
aF1.0
aF0.0
aa(lp47
F0.0
aF1.0
aF0.0
aa(lp48
F0.0
aF1.0
aF0.0
aa(lp49
F0.0
aF1.0
aF0.0
aa(lp50
F0.0
aF1.0
aF0.0
aa(lp51
F0.0
aF1.0
aF0.0
aa(lp52
F0.0
aF1.0
aF0.0
aa(lp53
F0.0
aF0.0
aF1.0
aa(lp54
F0.0
aF0.0
aF1.0
aa(lp55
F0.0
aF0.0
aF1.0
aa(lp56
F0.0
aF0.0
aF1.0
aa(lp57
F0.0
aF0.0
aF1.0
aa(lp58
F0.0
aF0.0
aF1.0
aa(lp59
F0.0
aF0.0
aF1.0
aa(lp60
F0.0
aF0.0
aF1.0
aa(lp61
F0.0
aF0.0
aF1.0
aa(lp62
F0.0
aF0.0
aF1.0
aaa.