(lp0
(lp1
(lp2
F5.1
aF3.5
aF1.4
aF0.2
aa(lp3
F4.9
aF3.0
aF1.4
aF0.2
aa(lp4
F4.7
aF3.2
aF1.3
aF0.2
aa(lp5
F4.6
aF3.1
aF1.5
aF0.2
aa(lp6
F5.0
aF3.6
aF1.4
aF0.2
aa(lp7
F5.4
aF3.9
aF1.7
aF0.4
aa(lp8
F4.6
aF3.4
aF1.4
aF0.3
aa(lp9
F5.0
aF3.4
aF1.5
aF0.2
aa(lp10
F4.4
aF2.9
aF1.4
aF0.2
aa(lp11
F4.9
aF3.1
aF1.5
aF0.1
aa(lp12
F5.4
aF3.7
aF1.5
aF0.2
aa(lp13
F4.8
aF3.4
aF1.6
aF0.2
aa(lp14
F4.8
aF3.0
aF1.4
aF0.1
aa(lp15
F4.3
aF3.0
aF1.1
aF0.1
aa(lp16
F5.8
aF4.0
aF1.2
aF0.2
aa(lp17
F5.7
aF4.4
aF1.5
aF0.4
aa(lp18
F5.4
aF3.9
aF1.3
aF0.4
aa(lp19
F5.1
aF3.5
aF1.4
aF0.3
aa(lp20
F5.7
aF3.8
aF1.7
aF0.3
aa(lp21
F5.1
aF3.8
aF1.5
aF0.3
aa(lp22
F5.4
aF3.4
aF1.7
aF0.2
aa(lp23
F5.1
aF3.7
aF1.5
aF0.4
aa(lp24
F4.6
aF3.6
aF1.0
aF0.2
aa(lp25
F5.1
aF3.3
aF1.7
aF0.5
aa(lp26
F4.8
aF3.4
aF1.9
aF0.2
aa(lp27
F5.0
aF3.0
aF1.6
aF0.2
aa(lp28
F5.0
aF3.4
aF1.6
aF0.4
aa(lp29
F5.2
aF3.5
aF1.5
aF0.2
aa(lp30
F5.2
aF3.4
aF1.4
aF0.2
aa(lp31
F4.7
aF3.2
aF1.6
aF0.2
aa(lp32
F4.8
aF3.1
aF1.6
aF0.2
aa(lp33
F5.4
aF3.4
aF1.5
aF0.4
aa(lp34
F5.2
aF4.1
aF1.5
aF0.1
aa(lp35
F5.5
aF4.2
aF1.4
aF0.2
aa(lp36
F4.9
aF3.1
aF1.5
aF0.2
aa(lp37
F5.0
aF3.2
aF1.2
aF0.2
aa(lp38
F5.5
aF3.5
aF1.3
aF0.2
aa(lp39
F4.9
aF3.6
aF1.4
aF0.1
aa(lp40
F4.4
aF3.0
aF1.3
aF0.2
aa(lp41
F5.1
aF3.4
aF1.5
aF0.2
aa(lp42
F7.0
aF3.2
aF4.7
aF1.4
aa(lp43
F6.4
aF3.2
aF4.5
aF1.5
aa(lp44
F6.9
aF3.1
aF4.9
aF1.5
aa(lp45
F5.5
aF2.3
aF4.0
aF1.3
aa(lp46
F6.5
aF2.8
aF4.6
aF1.5
aa(lp47
F5.7
aF2.8
aF4.5
aF1.3
aa(lp48
F6.3
aF3.3
aF4.7
aF1.6
aa(lp49
F4.9
aF2.4
aF3.3
aF1.0
aa(lp50
F6.6
aF2.9
aF4.6
aF1.3
aa(lp51
F5.2
aF2.7
aF3.9
aF1.4
aa(lp52
F5.0
aF2.0
aF3.5
aF1.0
aa(lp53
F5.9
aF3.0
aF4.2
aF1.5
aa(lp54
F6.0
aF2.2
aF4.0
aF1.0
aa(lp55
F6.1
aF2.9
aF4.7
aF1.4
aa(lp56
F5.6
aF2.9
aF3.6
aF1.3
aa(lp57
F6.7
aF3.1
aF4.4
aF1.4
aa(lp58
F5.6
aF3.0
aF4.5
aF1.5
aa(lp59
F5.8
aF2.7
aF4.1
aF1.0
aa(lp60
F6.2
aF2.2
aF4.5
aF1.5
aa(lp61
F5.6
aF2.5
aF3.9
aF1.1
aa(lp62
F5.9
aF3.2
aF4.8
aF1.8
aa(lp63
F6.1
aF2.8
aF4.0
aF1.3
aa(lp64
F6.3
aF2.5
aF4.9
aF1.5
aa(lp65
F6.1
aF2.8
aF4.7
aF1.2
aa(lp66
F6.4
aF2.9
aF4.3
aF1.3
aa(lp67
F6.6
aF3.0
aF4.4
aF1.4
aa(lp68
F6.8
aF2.8
aF4.8
aF1.4
aa(lp69
F6.7
aF3.0
aF5.0
aF1.7
aa(lp70
F6.0
aF2.9
aF4.5
aF1.5
aa(lp71
F5.7
aF2.6
aF3.5
aF1.0
aa(lp72
F5.5
aF2.4
aF3.8
aF1.1
aa(lp73
F5.5
aF2.4
aF3.7
aF1.0
aa(lp74
F5.8
aF2.7
aF3.9
aF1.2
aa(lp75
F6.0
aF2.7
aF5.1
aF1.6
aa(lp76
F5.4
aF3.0
aF4.5
aF1.5
aa(lp77
F6.0
aF3.4
aF4.5
aF1.6
aa(lp78
F6.7
aF3.1
aF4.7
aF1.5
aa(lp79
F6.3
aF2.3
aF4.4
aF1.3
aa(lp80
F5.6
aF3.0
aF4.1
aF1.3
aa(lp81
F5.5
aF2.5
aF4.0
aF1.3
aa(lp82
F6.3
aF3.3
aF6.0
aF2.5
aa(lp83
F5.8
aF2.7
aF5.1
aF1.9
aa(lp84
F7.1
aF3.0
aF5.9
aF2.1
aa(lp85
F6.3
aF2.9
aF5.6
aF1.8
aa(lp86
F6.5
aF3.0
aF5.8
aF2.2
aa(lp87
F7.6
aF3.0
aF6.6
aF2.1
aa(lp88
F4.9
aF2.5
aF4.5
aF1.7
aa(lp89
F7.3
aF2.9
aF6.3
aF1.8
aa(lp90
F6.7
aF2.5
aF5.8
aF1.8
aa(lp91
F7.2
aF3.6
aF6.1
aF2.5
aa(lp92
F6.5
aF3.2
aF5.1
aF2.0
aa(lp93
F6.4
aF2.7
aF5.3
aF1.9
aa(lp94
F6.8
aF3.0
aF5.5
aF2.1
aa(lp95
F5.7
aF2.5
aF5.0
aF2.0
aa(lp96
F5.8
aF2.8
aF5.1
aF2.4
aa(lp97
F6.4
aF3.2
aF5.3
aF2.3
aa(lp98
F6.5
aF3.0
aF5.5
aF1.8
aa(lp99
F7.7
aF3.8
aF6.7
aF2.2
aa(lp100
F7.7
aF2.6
aF6.9
aF2.3
aa(lp101
F6.0
aF2.2
aF5.0
aF1.5
aaa(lp102
(lp103
F1.0
aF0.0
aF0.0
aa(lp104
F1.0
aF0.0
aF0.0
aa(lp105
F1.0
aF0.0
aF0.0
aa(lp106
F1.0
aF0.0
aF0.0
aa(lp107
F1.0
aF0.0
aF0.0
aa(lp108
F1.0
aF0.0
aF0.0
aa(lp109
F1.0
aF0.0
aF0.0
aa(lp110
F1.0
aF0.0
aF0.0
aa(lp111
F1.0
aF0.0
aF0.0
aa(lp112
F1.0
aF0.0
aF0.0
aa(lp113
F1.0
aF0.0
aF0.0
aa(lp114
F1.0
aF0.0
aF0.0
aa(lp115
F1.0
aF0.0
aF0.0
aa(lp116
F1.0
aF0.0
aF0.0
aa(lp117
F1.0
aF0.0
aF0.0
aa(lp118
F1.0
aF0.0
aF0.0
aa(lp119
F1.0
aF0.0
aF0.0
aa(lp120
F1.0
aF0.0
aF0.0
aa(lp121
F1.0
aF0.0
aF0.0
aa(lp122
F1.0
aF0.0
aF0.0
aa(lp123
F1.0
aF0.0
aF0.0
aa(lp124
F1.0
aF0.0
aF0.0
aa(lp125
F1.0
aF0.0
aF0.0
aa(lp126
F1.0
aF0.0
aF0.0
aa(lp127
F1.0
aF0.0
aF0.0
aa(lp128
F1.0
aF0.0
aF0.0
aa(lp129
F1.0
aF0.0
aF0.0
aa(lp130
F1.0
aF0.0
aF0.0
aa(lp131
F1.0
aF0.0
aF0.0
aa(lp132
F1.0
aF0.0
aF0.0
aa(lp133
F1.0
aF0.0
aF0.0
aa(lp134
F1.0
aF0.0
aF0.0
aa(lp135
F1.0
aF0.0
aF0.0
aa(lp136
F1.0
aF0.0
aF0.0
aa(lp137
F1.0
aF0.0
aF0.0
aa(lp138
F1.0
aF0.0
aF0.0
aa(lp139
F1.0
aF0.0
aF0.0
aa(lp140
F1.0
aF0.0
aF0.0
aa(lp141
F1.0
aF0.0
aF0.0
aa(lp142
F1.0
aF0.0
aF0.0
aa(lp143
F0.0
aF1.0
aF0.0
aa(lp144
F0.0
aF1.0
aF0.0
aa(lp145
F0.0
aF1.0
aF0.0
aa(lp146
F0.0
aF1.0
aF0.0
aa(lp147
F0.0
aF1.0
aF0.0
aa(lp148
F0.0
aF1.0
aF0.0
aa(lp149
F0.0
aF1.0
aF0.0
aa(lp150
F0.0
aF1.0
aF0.0
aa(lp151
F0.0
aF1.0
aF0.0
aa(lp152
F0.0
aF1.0
aF0.0
aa(lp153
F0.0
aF1.0
aF0.0
aa(lp154
F0.0
aF1.0
aF0.0
aa(lp155
F0.0
aF1.0
aF0.0
aa(lp156
F0.0
aF1.0
aF0.0
aa(lp157
F0.0
aF1.0
aF0.0
aa(lp158
F0.0
aF1.0
aF0.0
aa(lp159
F0.0
aF1.0
aF0.0
aa(lp160
F0.0
aF1.0
aF0.0
aa(lp161
F0.0
aF1.0
aF0.0
aa(lp162
F0.0
aF1.0
aF0.0
aa(lp163
F0.0
aF1.0
aF0.0
aa(lp164
F0.0
aF1.0
aF0.0
aa(lp165
F0.0
aF1.0
aF0.0
aa(lp166
F0.0
aF1.0
aF0.0
aa(lp167
F0.0
aF1.0
aF0.0
aa(lp168
F0.0
aF1.0
aF0.0
aa(lp169
F0.0
aF1.0
aF0.0
aa(lp170
F0.0
aF1.0
aF0.0
aa(lp171
F0.0
aF1.0
aF0.0
aa(lp172
F0.0
aF1.0
aF0.0
aa(lp173
F0.0
aF1.0
aF0.0
aa(lp174
F0.0
aF1.0
aF0.0
aa(lp175
F0.0
aF1.0
aF0.0
aa(lp176
F0.0
aF1.0
aF0.0
aa(lp177
F0.0
aF1.0
aF0.0
aa(lp178
F0.0
aF1.0
aF0.0
aa(lp179
F0.0
aF1.0
aF0.0
aa(lp180
F0.0
aF1.0
aF0.0
aa(lp181
F0.0
aF1.0
aF0.0
aa(lp182
F0.0
aF1.0
aF0.0
aa(lp183
F0.0
aF0.0
aF1.0
aa(lp184
F0.0
aF0.0
aF1.0
aa(lp185
F0.0
aF0.0
aF1.0
aa(lp186
F0.0
aF0.0
aF1.0
aa(lp187
F0.0
aF0.0
aF1.0
aa(lp188
F0.0
aF0.0
aF1.0
aa(lp189
F0.0
aF0.0
aF1.0
aa(lp190
F0.0
aF0.0
aF1.0
aa(lp191
F0.0
aF0.0
aF1.0
aa(lp192
F0.0
aF0.0
aF1.0
aa(lp193
F0.0
aF0.0
aF1.0
aa(lp194
F0.0
aF0.0
aF1.0
aa(lp195
F0.0
aF0.0
aF1.0
aa(lp196
F0.0
aF0.0
aF1.0
aa(lp197
F0.0
aF0.0
aF1.0
aa(lp198
F0.0
aF0.0
aF1.0
aa(lp199
F0.0
aF0.0
aF1.0
aa(lp200
F0.0
aF0.0
aF1.0
aa(lp201
F0.0
aF0.0
aF1.0
aa(lp202
F0.0
aF0.0
aF1.0
aaa.